; Function Attrs: mustprogress uwtable
define hidden void @initialize_libuv() local_unnamed_addr #0 personality ptr @__gxx_personality_v0 {
  %1 = alloca %"class.lean::lthread", align 8
  %2 = alloca %"class.std::function", align 8
  tail call void @_ZN4lean22initialize_libuv_timerEv()
  tail call void @_ZN4lean27initialize_libuv_tcp_socketEv()
  tail call void @_ZN4lean27initialize_libuv_udp_socketEv()
  tail call void @_ZN4lean21initialize_libuv_loopEv()
  call void @llvm.lifetime.start.p0(i64 32, ptr nonnull %2) #8
  %3 = getelementptr inbounds nuw i8, ptr %2, i64 16
  %4 = getelementptr inbounds nuw i8, ptr %2, i64 24
  call void @llvm.memset.p0.i64(ptr noundef nonnull align 8 dereferenceable(32) %2, i8 0, i64 16, i1 false)
  store ptr @"_ZNSt17_Function_handlerIFvvEZ16initialize_libuvE3$_0E9_M_invokeERKSt9_Any_data", ptr %4, align 8, !tbaa !3
  store ptr @"_ZNSt17_Function_handlerIFvvEZ16initialize_libuvE3$_0E10_M_managerERSt9_Any_dataRKS3_St18_Manager_operation", ptr %3, align 8, !tbaa !9
  invoke void @_ZN4lean7lthreadC1ERKSt8functionIFvvEE(ptr noundef nonnull align 8 dereferenceable(8) %1, ptr noundef nonnull align 8 dereferenceable(32) %2)
          to label %5 unwind label %12

5:                                                ; preds = %0
  call void @_ZN4lean7lthreadD1Ev(ptr noundef nonnull align 8 dereferenceable(8) %1) #8
  %6 = load ptr, ptr %3, align 8, !tbaa !9
  %.not.i = icmp eq ptr %6, null
  br i1 %.not.i, label %_ZNSt14_Function_baseD2Ev.exit, label %7

7:                                                ; preds = %5
  %8 = invoke noundef zeroext i1 %6(ptr noundef nonnull align 8 dereferenceable(32) %2, ptr noundef nonnull align 8 dereferenceable(32) %2, i32 noundef 3)
          to label %_ZNSt14_Function_baseD2Ev.exit unwind label %9

9:                                                ; preds = %7
  %10 = landingpad { ptr, i32 }
          catch ptr null
  %11 = extractvalue { ptr, i32 } %10, 0
  call void @__clang_call_terminate(ptr %11) #9
  unreachable

_ZNSt14_Function_baseD2Ev.exit:                   ; preds = %5, %7
  call void @llvm.lifetime.end.p0(i64 32, ptr nonnull %2) #8
  ret void

12:                                               ; preds = %0
  %13 = landingpad { ptr, i32 }
          cleanup
  %14 = load ptr, ptr %3, align 8, !tbaa !9
  %.not.i1 = icmp eq ptr %14, null
  br i1 %.not.i1, label %_ZNSt14_Function_baseD2Ev.exit2, label %15

15:                                               ; preds = %12
  %16 = invoke noundef zeroext i1 %14(ptr noundef nonnull align 8 dereferenceable(32) %2, ptr noundef nonnull align 8 dereferenceable(32) %2, i32 noundef 3)
          to label %_ZNSt14_Function_baseD2Ev.exit2 unwind label %17

17:                                               ; preds = %15
  %18 = landingpad { ptr, i32 }
          catch ptr null
  %19 = extractvalue { ptr, i32 } %18, 0
  call void @__clang_call_terminate(ptr %19) #9
  unreachable

_ZNSt14_Function_baseD2Ev.exit2:                  ; preds = %12, %15
  call void @llvm.lifetime.end.p0(i64 32, ptr nonnull %2) #8
  resume { ptr, i32 } %13
}